target datalayout = "e-m:e-p270:32:32-p271:32:32-p272:64:64-i64:64-i128:128-f80:128-n8:16:32:64-S128"
target triple = "x86_64-pc-linux-gnu"

%struct.bn_gencb_st = type { ptr, ptr }

@stderr = external global ptr, align 8
@dsa_cb.ok = internal global i32 0, align 4
@dsa_cb.num = internal global i32 0, align 4
@.str.11 = private unnamed_addr constant [18 x i8] c"error in dsatest\0A\00", align 1

; Function Attrs: nounwind uwtable
define internal i32 @dsa_cb(i32 noundef %0, i32 noundef %1, ptr noundef %2) #0 {
  %4 = alloca i32, align 4
  %5 = alloca i32, align 4
  %6 = alloca i32, align 4
  %7 = alloca ptr, align 8
  %8 = alloca i8, align 1
  %9 = alloca i32, align 4
  store i32 %0, ptr %5, align 4, !tbaa !6
  store i32 %1, ptr %6, align 4, !tbaa !6
  store ptr %2, ptr %7, align 8, !tbaa !32
  call void @llvm.lifetime.start.p0(i64 1, ptr %8) #5
  store i8 42, ptr %8, align 1, !tbaa !17
  %10 = load i32, ptr %5, align 4, !tbaa !6
  switch i32 %10, label %19 [
    i32 0, label %11
    i32 1, label %14
    i32 2, label %15
    i32 3, label %18
  ]

11:                                               ; preds = %3
  store i8 46, ptr %8, align 1, !tbaa !17
  %12 = load i32, ptr @dsa_cb.num, align 4, !tbaa !6
  %13 = add nsw i32 %12, 1
  store i32 %13, ptr @dsa_cb.num, align 4, !tbaa !6
  br label %19

14:                                               ; preds = %3
  store i8 43, ptr %8, align 1, !tbaa !17
  br label %19

15:                                               ; preds = %3
  store i8 42, ptr %8, align 1, !tbaa !17
  %16 = load i32, ptr @dsa_cb.ok, align 4, !tbaa !6
  %17 = add nsw i32 %16, 1
  store i32 %17, ptr @dsa_cb.ok, align 4, !tbaa !6
  br label %19

18:                                               ; preds = %3
  store i8 10, ptr %8, align 1, !tbaa !17
  br label %19

19:                                               ; preds = %18, %3, %15, %14, %11
  %20 = load i8, ptr %8, align 1, !tbaa !17
  %21 = sext i8 %20 to i32
  %22 = load ptr, ptr %7, align 8, !tbaa !32
  %23 = getelementptr inbounds nuw %struct.bn_gencb_st, ptr %22, i32 0, i32 0
  %24 = load ptr, ptr %23, align 8, !tbaa !34
  %25 = call i32 @fputc(i32 noundef %21, ptr noundef %24)
  %26 = load ptr, ptr %7, align 8, !tbaa !32
  %27 = getelementptr inbounds nuw %struct.bn_gencb_st, ptr %26, i32 0, i32 0
  %28 = load ptr, ptr %27, align 8, !tbaa !34
  %29 = call i32 @fflush(ptr noundef %28)
  %30 = load i32, ptr @dsa_cb.ok, align 4, !tbaa !6
  %31 = icmp ne i32 %30, 0
  br i1 %31, label %41, label %32

32:                                               ; preds = %19
  %33 = load i32, ptr %5, align 4, !tbaa !6
  %34 = icmp eq i32 %33, 0
  br i1 %34, label %35, label %41

35:                                               ; preds = %32
  %36 = load i32, ptr @dsa_cb.num, align 4, !tbaa !6
  %37 = icmp sgt i32 %36, 1
  br i1 %37, label %38, label %41

38:                                               ; preds = %35
  %39 = load ptr, ptr @stderr, align 8, !tbaa !13
  %40 = call i32 (ptr, ptr, ...) @fprintf(ptr noundef %39, ptr noundef @.str.11) #5
  store i32 0, ptr %4, align 4
  store i32 1, ptr %9, align 4
  br label %42

41:                                               ; preds = %35, %32, %19
  store i32 1, ptr %4, align 4
  store i32 1, ptr %9, align 4
  br label %42

42:                                               ; preds = %41, %38
  call void @llvm.lifetime.end.p0(i64 1, ptr %8) #5
  %43 = load i32, ptr %4, align 4
  ret i32 %43
}