; Function Attrs: nofree nounwind uwtable
define internal range(i32 0, 2) i32 @dsa_cb(i32 noundef %0, i32 %1, ptr noundef readonly captures(none) %2) #4 {
  switch i32 %0, label %12 [
    i32 0, label %4
    i32 1, label %7
    i32 2, label %8
    i32 3, label %11
  ]

4:                                                ; preds = %3
  %5 = load i32, ptr @dsa_cb.num, align 4, !tbaa !14
  %6 = add nsw i32 %5, 1
  store i32 %6, ptr @dsa_cb.num, align 4, !tbaa !14
  br label %12

7:                                                ; preds = %3
  br label %12

8:                                                ; preds = %3
  %9 = load i32, ptr @dsa_cb.ok, align 4, !tbaa !14
  %10 = add nsw i32 %9, 1
  store i32 %10, ptr @dsa_cb.ok, align 4, !tbaa !14
  br label %12

11:                                               ; preds = %3
  br label %12

12:                                               ; preds = %11, %8, %7, %4, %3
  %.0 = phi i32 [ 42, %3 ], [ 10, %11 ], [ 42, %8 ], [ 43, %7 ], [ 46, %4 ]
  %13 = load ptr, ptr %2, align 8, !tbaa !28
  %14 = tail call i32 @fputc(i32 noundef %.0, ptr noundef %13)
  %15 = load ptr, ptr %2, align 8, !tbaa !28
  %16 = tail call i32 @fflush(ptr noundef %15)
  %17 = load i32, ptr @dsa_cb.ok, align 4, !tbaa !14
  %18 = or i32 %17, %0
  %or.cond = icmp eq i32 %18, 0
  %19 = load i32, ptr @dsa_cb.num, align 4
  %20 = icmp sgt i32 %19, 1
  %or.cond3 = select i1 %or.cond, i1 %20, i1 false
  br i1 %or.cond3, label %21, label %24

21:                                               ; preds = %12
  %22 = load ptr, ptr @stderr, align 8, !tbaa !6
  %23 = tail call i64 @fwrite(ptr nonnull @.str.11, i64 17, i64 1, ptr %22) #8
  br label %24

24:                                               ; preds = %12, %21
  %.08 = phi i32 [ 0, %21 ], [ 1, %12 ]
  ret i32 %.08
}